target datalayout = "e-m:e-p270:32:32-p271:32:32-p272:64:64-i64:64-i128:128-f80:128-n8:16:32:64-S128"
target triple = "x86_64-unknown-linux-gnu"

%struct.hlist_head = type { ptr }
%struct.pcpu_hot = type { %union.anon.31 }
%union.anon.31 = type { %struct.anon.32, [16 x i8] }
%struct.anon.32 = type { ptr, i32, i32, i64, i64, ptr, i16, i8 }
%struct.timespec64 = type { i64, i64 }
%struct.itimerspec64 = type { %struct.timespec64, %struct.timespec64 }

@posix_timers_hashtable = internal global [512 x %struct.hlist_head] zeroinitializer, align 16
@pcpu_hot = external dso_local global %struct.pcpu_hot, section ".data..percpu..shared_aligned", align 64
@.str.2 = private unnamed_addr constant [27 x i8] c"kernel/time/posix-timers.c\00", align 1

; Function Attrs: fn_ret_thunk_extern nounwind null_pointer_is_valid
define internal fastcc ptr @__lock_timer(i32 noundef %0, ptr nocapture noundef writeonly %1) unnamed_addr #1 align 16 {
  %3 = icmp slt i32 %0, 0
  br i1 %3, label %52, label %4

4:                                                ; preds = %2
  tail call void @__rcu_read_lock() #8
  %5 = tail call i64 asm "movq %gs:${1:P}, $0", "=r,p,~{dirflag},~{fpsr},~{flags}"(ptr nonnull @pcpu_hot) #9, !srcloc !6
  %6 = inttoptr i64 %5 to ptr
  %7 = getelementptr inbounds i8, ptr %6, i64 1880
  %8 = load ptr, ptr %7, align 8
  %9 = ptrtoint ptr %8 to i64
  %10 = lshr i64 %9, 32
  %11 = xor i64 %10, %9
  %12 = trunc i64 %11 to i32
  %13 = xor i32 %12, %0
  %14 = mul i32 %13, 1640531527
  %15 = lshr i32 %14, 23
  %16 = zext nneg i32 %15 to i64
  %17 = getelementptr [512 x %struct.hlist_head], ptr @posix_timers_hashtable, i64 0, i64 %16
  %18 = load volatile ptr, ptr %17, align 8
  %19 = icmp eq ptr %18, null
  %20 = getelementptr i8, ptr %18, i64 -16
  %21 = icmp eq ptr %20, null
  %22 = or i1 %19, %21
  br i1 %22, label %39, label %23

23:                                               ; preds = %32, %4
  %24 = phi ptr [ %37, %32 ], [ %20, %4 ]
  %25 = getelementptr inbounds i8, ptr %24, i64 96
  %26 = load volatile ptr, ptr %25, align 8
  %27 = icmp eq ptr %26, %8
  br i1 %27, label %28, label %32

28:                                               ; preds = %23
  %29 = getelementptr inbounds i8, ptr %24, i64 52
  %30 = load i32, ptr %29, align 4
  %31 = icmp eq i32 %30, %0
  br i1 %31, label %39, label %32

32:                                               ; preds = %28, %23
  %33 = getelementptr inbounds i8, ptr %24, i64 16
  %34 = load volatile ptr, ptr %33, align 8
  %35 = icmp eq ptr %34, null
  %36 = getelementptr i8, ptr %34, i64 -16
  %37 = select i1 %35, ptr null, ptr %36
  %38 = icmp eq ptr %37, null
  br i1 %38, label %39, label %23, !llvm.loop !7

39:                                               ; preds = %32, %28, %4
  %40 = phi ptr [ null, %4 ], [ %24, %28 ], [ null, %32 ]
  %41 = icmp eq ptr %40, null
  br i1 %41, label %50, label %42

42:                                               ; preds = %39
  %43 = getelementptr inbounds i8, ptr %40, i64 32
  %44 = tail call i64 @_raw_spin_lock_irqsave(ptr noundef %43) #8
  store i64 %44, ptr %1, align 8
  %45 = getelementptr inbounds i8, ptr %40, i64 96
  %46 = load ptr, ptr %45, align 8
  %47 = load ptr, ptr %7, align 8
  %48 = icmp eq ptr %46, %47
  br i1 %48, label %50, label %49

49:                                               ; preds = %42
  tail call void @_raw_spin_unlock_irqrestore(ptr noundef %43, i64 noundef %44) #8
  br label %50

50:                                               ; preds = %49, %42, %39
  %51 = phi ptr [ %40, %42 ], [ null, %49 ], [ null, %39 ]
  tail call void @__rcu_read_unlock() #8
  br label %52

52:                                               ; preds = %50, %2
  %53 = phi ptr [ null, %2 ], [ %51, %50 ]
  ret ptr %53
}

; Function Attrs: fn_ret_thunk_extern nounwind null_pointer_is_valid
define internal fastcc i64 @__se_sys_timer_gettime32(i64 noundef %0, i64 noundef %1) unnamed_addr #1 align 16 {
  %3 = alloca i64, align 8
  %4 = alloca %struct.itimerspec64, align 8
  %5 = trunc i64 %0 to i32
  %6 = inttoptr i64 %1 to ptr
  call void @llvm.lifetime.start.p0(i64 32, ptr nonnull %4) #8
  call void @llvm.memset.p0.i64(ptr noundef nonnull align 8 dereferenceable(32) %4, i8 0, i64 32, i1 false), !annotation !5
  call void @llvm.lifetime.start.p0(i64 8, ptr nonnull %3) #8
  store i64 0, ptr %3, align 8, !annotation !5
  %7 = call fastcc ptr @__lock_timer(i32 noundef %5, ptr noundef nonnull %3)
  %8 = icmp eq ptr %7, null
  br i1 %8, label %23, label %9

9:                                                ; preds = %2
  call void @llvm.memset.p0.i64(ptr noundef nonnull align 8 dereferenceable(32) %4, i8 0, i64 32, i1 false)
  %10 = getelementptr inbounds i8, ptr %7, i64 40
  %11 = load ptr, ptr %10, align 8
  %12 = icmp eq ptr %11, null
  br i1 %12, label %17, label %13

13:                                               ; preds = %9
  %14 = getelementptr inbounds i8, ptr %11, i64 72
  %15 = load ptr, ptr %14, align 8
  %16 = icmp eq ptr %15, null
  br i1 %16, label %17, label %18, !prof !11

17:                                               ; preds = %13, %9
  tail call void asm sideeffect "393: nop\0A\09.pushsection .discard.instr_begin\0A\09.long 393b - .\0A\09.popsection\0A\09", "i,~{dirflag},~{fpsr},~{flags}"(i32 393) #8, !srcloc !12
  tail call void asm sideeffect "1:\09.byte 0x0f, 0x0b\0A.pushsection __bug_table,\22aw\22\0A2:\09.long 1b - .\09# bug_entry::bug_addr\0A\09.long ${0:c} - .\09# bug_entry::file\0A\09.word ${1:c}\09# bug_entry::line\0A\09.word ${2:c}\09# bug_entry::flags\0A\09.org 2b+${3:c}\0A.popsection\0A998:\0A\09.pushsection .discard.reachable\0A\09.long 998b\0A\09.popsection\0A\09", "i,i,i,i,~{dirflag},~{fpsr},~{flags}"(ptr nonnull @.str.2, i32 709, i32 2307, i64 12) #8, !srcloc !13
  tail call void asm sideeffect "394: nop\0A\09.pushsection .discard.instr_end\0A\09.long 394b - .\0A\09.popsection\0A\09", "i,~{dirflag},~{fpsr},~{flags}"(i32 394) #8, !srcloc !14
  br label %19

18:                                               ; preds = %13
  call void %15(ptr noundef nonnull %7, ptr noundef nonnull %4) #8
  br label %19

19:                                               ; preds = %18, %17
  %20 = phi i32 [ 0, %18 ], [ -22, %17 ]
  %21 = load i64, ptr %3, align 8
  %22 = getelementptr inbounds i8, ptr %7, i64 32
  call void @_raw_spin_unlock_irqrestore(ptr noundef %22, i64 noundef %21) #8
  br label %23

23:                                               ; preds = %19, %2
  %24 = phi i32 [ %20, %19 ], [ -22, %2 ]
  call void @llvm.lifetime.end.p0(i64 8, ptr nonnull %3) #8
  %25 = icmp eq i32 %24, 0
  br i1 %25, label %26, label %30

26:                                               ; preds = %23
  %27 = call i32 @put_old_itimerspec32(ptr noundef nonnull %4, ptr noundef %6) #8
  %28 = icmp eq i32 %27, 0
  %29 = select i1 %28, i32 0, i32 -14
  br label %30

30:                                               ; preds = %26, %23
  %31 = phi i32 [ %24, %23 ], [ %29, %26 ]
  %32 = sext i32 %31 to i64
  call void @llvm.lifetime.end.p0(i64 32, ptr nonnull %4) #8
  ret i64 %32
}