; Function Attrs: fn_ret_thunk_extern nounwind null_pointer_is_valid
define internal fastcc i64 @__se_sys_timer_gettime32(i64 noundef %0, i64 noundef %1) unnamed_addr #1 align 16 {
  %3 = alloca %struct.itimerspec64, align 8
  %4 = trunc i64 %0 to i32
  %5 = inttoptr i64 %1 to ptr
  call void @llvm.lifetime.start.p0(i64 32, ptr nonnull %3) #8
  %6 = icmp slt i32 %4, 0
  br i1 %6, label %.thread, label %7

7:                                                ; preds = %2
  tail call void @__rcu_read_lock() #8
  %8 = tail call i64 asm "movq %gs:${1:P}, $0", "=r,p,~{dirflag},~{fpsr},~{flags}"(ptr nonnull @pcpu_hot) #9, !srcloc !5
  %9 = inttoptr i64 %8 to ptr
  %10 = getelementptr inbounds i8, ptr %9, i64 1880
  %11 = load ptr, ptr %10, align 8
  %12 = ptrtoint ptr %11 to i64
  %13 = lshr i64 %12, 32
  %14 = xor i64 %13, %0
  %15 = xor i64 %14, %12
  %16 = mul i64 %15, 1640531527
  %17 = lshr i64 %16, 23
  %18 = and i64 %17, 511
  %19 = getelementptr [512 x %struct.hlist_head], ptr @posix_timers_hashtable, i64 0, i64 %18
  %20 = load volatile ptr, ptr %19, align 8
  %21 = icmp eq ptr %20, null
  %22 = getelementptr i8, ptr %20, i64 -16
  %23 = icmp eq ptr %22, null
  %24 = or i1 %21, %23
  br i1 %24, label %__lock_timer.exit.thread5, label %.preheader.i

.preheader.i:                                     ; preds = %7, %33
  %25 = phi ptr [ %37, %33 ], [ %22, %7 ]
  %26 = getelementptr inbounds i8, ptr %25, i64 96
  %27 = load volatile ptr, ptr %26, align 8
  %28 = icmp eq ptr %27, %11
  br i1 %28, label %29, label %33

29:                                               ; preds = %.preheader.i
  %30 = getelementptr inbounds i8, ptr %25, i64 52
  %31 = load i32, ptr %30, align 4
  %32 = icmp eq i32 %31, %4
  br i1 %32, label %40, label %33

33:                                               ; preds = %29, %.preheader.i
  %34 = getelementptr inbounds i8, ptr %25, i64 16
  %35 = load volatile ptr, ptr %34, align 8
  %36 = icmp eq ptr %35, null
  %37 = getelementptr i8, ptr %35, i64 -16
  %38 = icmp eq ptr %37, null
  %39 = or i1 %36, %38
  br i1 %39, label %__lock_timer.exit.thread5, label %.preheader.i, !llvm.loop !6

40:                                               ; preds = %29
  %41 = getelementptr inbounds i8, ptr %25, i64 96
  %42 = getelementptr inbounds i8, ptr %25, i64 32
  %43 = tail call i64 @_raw_spin_lock_irqsave(ptr noundef %42) #8
  %44 = load ptr, ptr %41, align 8
  %45 = load ptr, ptr %10, align 8
  %46 = icmp eq ptr %44, %45
  br i1 %46, label %48, label %47

47:                                               ; preds = %40
  tail call void @_raw_spin_unlock_irqrestore(ptr noundef %42, i64 noundef %43) #8
  br label %__lock_timer.exit.thread5

__lock_timer.exit.thread5:                        ; preds = %33, %47, %7
  tail call void @__rcu_read_unlock() #8
  br label %.thread

48:                                               ; preds = %40
  tail call void @__rcu_read_unlock() #8
  call void @llvm.memset.p0.i64(ptr noundef nonnull align 8 dereferenceable(32) %3, i8 0, i64 32, i1 false)
  %49 = getelementptr inbounds i8, ptr %25, i64 40
  %50 = load ptr, ptr %49, align 8
  %51 = icmp eq ptr %50, null
  br i1 %51, label %56, label %52

52:                                               ; preds = %48
  %53 = getelementptr inbounds i8, ptr %50, i64 72
  %54 = load ptr, ptr %53, align 8
  %55 = icmp eq ptr %54, null
  br i1 %55, label %56, label %57, !prof !11

56:                                               ; preds = %48, %52
  tail call void asm sideeffect "393: nop\0A\09.pushsection .discard.instr_begin\0A\09.long 393b - .\0A\09.popsection\0A\09", "i,~{dirflag},~{fpsr},~{flags}"(i32 393) #8, !srcloc !12
  tail call void asm sideeffect "1:\09.byte 0x0f, 0x0b\0A.pushsection __bug_table,\22aw\22\0A2:\09.long 1b - .\09# bug_entry::bug_addr\0A\09.long ${0:c} - .\09# bug_entry::file\0A\09.word ${1:c}\09# bug_entry::line\0A\09.word ${2:c}\09# bug_entry::flags\0A\09.org 2b+${3:c}\0A.popsection\0A998:\0A\09.pushsection .discard.reachable\0A\09.long 998b\0A\09.popsection\0A\09", "i,i,i,i,~{dirflag},~{fpsr},~{flags}"(ptr nonnull @.str.2, i32 709, i32 2307, i64 12) #8, !srcloc !13
  tail call void asm sideeffect "394: nop\0A\09.pushsection .discard.instr_end\0A\09.long 394b - .\0A\09.popsection\0A\09", "i,~{dirflag},~{fpsr},~{flags}"(i32 394) #8, !srcloc !14
  tail call void @_raw_spin_unlock_irqrestore(ptr noundef %42, i64 noundef %43) #8
  br label %.thread

57:                                               ; preds = %52
  call void %54(ptr noundef nonnull %25, ptr noundef nonnull %3) #8
  call void @_raw_spin_unlock_irqrestore(ptr noundef %42, i64 noundef %43) #8
  %58 = call i32 @put_old_itimerspec32(ptr noundef nonnull %3, ptr noundef %5) #8
  %59 = icmp eq i32 %58, 0
  %60 = select i1 %59, i64 0, i64 -14
  br label %.thread

.thread:                                          ; preds = %2, %__lock_timer.exit.thread5, %56, %57
  %61 = phi i64 [ -22, %56 ], [ %60, %57 ], [ -22, %__lock_timer.exit.thread5 ], [ -22, %2 ]
  call void @llvm.lifetime.end.p0(i64 32, ptr nonnull %3) #8
  ret i64 %61
}